target datalayout = "e-m:e-p270:32:32-p271:32:32-p272:64:64-i64:64-i128:128-f80:128-n8:16:32:64-S128"
target triple = "x86_64-pc-linux-gnu"

@_ZN27java_lang_reflect_Parameter12_name_offsetE = hidden global i32 0, align 4
@_ZN27java_lang_reflect_Parameter17_modifiers_offsetE = hidden global i32 0, align 4
@_ZN27java_lang_reflect_Parameter13_index_offsetE = hidden global i32 0, align 4
@_ZN27java_lang_reflect_Parameter18_executable_offsetE = hidden global i32 0, align 4

; Function Attrs: mustprogress nounwind uwtable
define hidden void @_ZN27java_lang_reflect_Parameter17serialize_offsetsEP16SerializeClosure(ptr noundef %0) #1 align 2 {
  %2 = alloca ptr, align 8
  store ptr %0, ptr %2, align 8
  %3 = load ptr, ptr %2, align 8
  %4 = load ptr, ptr %3, align 8
  %5 = getelementptr inbounds ptr, ptr %4, i64 3
  %6 = load ptr, ptr %5, align 8
  call void %6(ptr noundef nonnull align 8 dereferenceable(8) %3, ptr noundef @_ZN27java_lang_reflect_Parameter12_name_offsetE)
  %7 = load ptr, ptr %2, align 8
  %8 = load ptr, ptr %7, align 8
  %9 = getelementptr inbounds ptr, ptr %8, i64 3
  %10 = load ptr, ptr %9, align 8
  call void %10(ptr noundef nonnull align 8 dereferenceable(8) %7, ptr noundef @_ZN27java_lang_reflect_Parameter17_modifiers_offsetE)
  %11 = load ptr, ptr %2, align 8
  %12 = load ptr, ptr %11, align 8
  %13 = getelementptr inbounds ptr, ptr %12, i64 3
  %14 = load ptr, ptr %13, align 8
  call void %14(ptr noundef nonnull align 8 dereferenceable(8) %11, ptr noundef @_ZN27java_lang_reflect_Parameter13_index_offsetE)
  %15 = load ptr, ptr %2, align 8
  %16 = load ptr, ptr %15, align 8
  %17 = getelementptr inbounds ptr, ptr %16, i64 3
  %18 = load ptr, ptr %17, align 8
  call void %18(ptr noundef nonnull align 8 dereferenceable(8) %15, ptr noundef @_ZN27java_lang_reflect_Parameter18_executable_offsetE)
  ret void
}